target datalayout = "e-m:e-p270:32:32-p271:32:32-p272:64:64-i64:64-i128:128-f80:128-n8:16:32:64-S128"
target triple = "x86_64-unknown-linux-gnu"

%"class.std::__cxx11::basic_string" = type { %"struct.std::__cxx11::basic_string<char>::_Alloc_hider", i64, %union.anon }
%"struct.std::__cxx11::basic_string<char>::_Alloc_hider" = type { ptr }
%union.anon = type { i64, [8 x i8] }
%"class.openvdb::v11_0::io::GridDescriptor" = type { %"class.std::__cxx11::basic_string", %"class.std::__cxx11::basic_string", %"class.std::__cxx11::basic_string", %"class.std::__cxx11::basic_string", i8, i64, i64, i64 }

; Function Attrs: mustprogress nounwind uwtable
define void @_ZN7openvdb5v11_02io14GridDescriptorC2Ev(ptr noundef nonnull align 8 dereferenceable(160) %this) unnamed_addr #5 align 2 {
entry:
  %this.addr = alloca ptr, align 8
  store ptr %this, ptr %this.addr, align 8
  %this1 = load ptr, ptr %this.addr, align 8
  %mGridName = getelementptr inbounds %"class.openvdb::v11_0::io::GridDescriptor", ptr %this1, i32 0, i32 0
  call void @_ZNSt7__cxx1112basic_stringIcSt11char_traitsIcESaIcEEC1Ev(ptr noundef nonnull align 8 dereferenceable(32) %mGridName) #3
  %mUniqueName = getelementptr inbounds %"class.openvdb::v11_0::io::GridDescriptor", ptr %this1, i32 0, i32 1
  call void @_ZNSt7__cxx1112basic_stringIcSt11char_traitsIcESaIcEEC1Ev(ptr noundef nonnull align 8 dereferenceable(32) %mUniqueName) #3
  %mInstanceParentName = getelementptr inbounds %"class.openvdb::v11_0::io::GridDescriptor", ptr %this1, i32 0, i32 2
  call void @_ZNSt7__cxx1112basic_stringIcSt11char_traitsIcESaIcEEC1Ev(ptr noundef nonnull align 8 dereferenceable(32) %mInstanceParentName) #3
  %mGridType = getelementptr inbounds %"class.openvdb::v11_0::io::GridDescriptor", ptr %this1, i32 0, i32 3
  call void @_ZNSt7__cxx1112basic_stringIcSt11char_traitsIcESaIcEEC1Ev(ptr noundef nonnull align 8 dereferenceable(32) %mGridType) #3
  %mSaveFloatAsHalf = getelementptr inbounds %"class.openvdb::v11_0::io::GridDescriptor", ptr %this1, i32 0, i32 4
  store i8 0, ptr %mSaveFloatAsHalf, align 8
  %mGridPos = getelementptr inbounds %"class.openvdb::v11_0::io::GridDescriptor", ptr %this1, i32 0, i32 5
  store i64 0, ptr %mGridPos, align 8
  %mBlockPos = getelementptr inbounds %"class.openvdb::v11_0::io::GridDescriptor", ptr %this1, i32 0, i32 6
  store i64 0, ptr %mBlockPos, align 8
  %mEndPos = getelementptr inbounds %"class.openvdb::v11_0::io::GridDescriptor", ptr %this1, i32 0, i32 7
  store i64 0, ptr %mEndPos, align 8
  ret void
}