; Function Attrs: mustprogress nounwind uwtable
define void @_ZN7openvdb5v11_02io14GridDescriptorC2Ev(ptr noundef nonnull align 8 dereferenceable(160) %this) unnamed_addr #4 align 2 {
entry:
  tail call void @_ZNSt7__cxx1112basic_stringIcSt11char_traitsIcESaIcEEC1Ev(ptr noundef nonnull align 8 dereferenceable(32) %this) #11
  %mUniqueName = getelementptr inbounds i8, ptr %this, i64 32
  tail call void @_ZNSt7__cxx1112basic_stringIcSt11char_traitsIcESaIcEEC1Ev(ptr noundef nonnull align 8 dereferenceable(32) %mUniqueName) #11
  %mInstanceParentName = getelementptr inbounds i8, ptr %this, i64 64
  tail call void @_ZNSt7__cxx1112basic_stringIcSt11char_traitsIcESaIcEEC1Ev(ptr noundef nonnull align 8 dereferenceable(32) %mInstanceParentName) #11
  %mGridType = getelementptr inbounds i8, ptr %this, i64 96
  tail call void @_ZNSt7__cxx1112basic_stringIcSt11char_traitsIcESaIcEEC1Ev(ptr noundef nonnull align 8 dereferenceable(32) %mGridType) #11
  %mSaveFloatAsHalf = getelementptr inbounds i8, ptr %this, i64 128
  store i8 0, ptr %mSaveFloatAsHalf, align 8
  %mGridPos = getelementptr inbounds i8, ptr %this, i64 136
  tail call void @llvm.memset.p0.i64(ptr noundef nonnull align 8 dereferenceable(24) %mGridPos, i8 0, i64 24, i1 false)
  ret void
}